target datalayout = "e-m:e-p270:32:32-p271:32:32-p272:64:64-i64:64-i128:128-f80:128-n8:16:32:64-S128"
target triple = "x86_64-pc-linux-gnu"

%struct.wpacket_st = type { ptr, ptr, i64, i64, i64, ptr, i8 }
%struct.wpacket_sub = type { ptr, i64, i64, i64, i32 }

@.str = private unnamed_addr constant [27 x i8] c"../openssl/crypto/packet.c\00", align 1

; Function Attrs: nounwind uwtable
define internal i32 @wpacket_intern_init_len(ptr noundef %0, i64 noundef %1) #0 {
  %3 = alloca i32, align 4
  %4 = alloca ptr, align 8
  %5 = alloca i64, align 8
  %6 = alloca ptr, align 8
  %7 = alloca i32, align 4
  store ptr %0, ptr %4, align 8, !tbaa !4
  store i64 %1, ptr %5, align 8, !tbaa !9
  call void @llvm.lifetime.start.p0(i64 8, ptr %6) #7
  %8 = load ptr, ptr %4, align 8, !tbaa !4
  %9 = getelementptr inbounds nuw %struct.wpacket_st, ptr %8, i32 0, i32 2
  store i64 0, ptr %9, align 8, !tbaa !19
  %10 = load ptr, ptr %4, align 8, !tbaa !4
  %11 = getelementptr inbounds nuw %struct.wpacket_st, ptr %10, i32 0, i32 3
  store i64 0, ptr %11, align 8, !tbaa !13
  %12 = call noalias ptr @CRYPTO_zalloc(i64 noundef 40, ptr noundef @.str, i32 noundef 110)
  %13 = load ptr, ptr %4, align 8, !tbaa !4
  %14 = getelementptr inbounds nuw %struct.wpacket_st, ptr %13, i32 0, i32 5
  store ptr %12, ptr %14, align 8, !tbaa !20
  %15 = icmp eq ptr %12, null
  br i1 %15, label %16, label %17

16:                                               ; preds = %2
  store i32 0, ptr %3, align 4
  store i32 1, ptr %7, align 4
  br label %47

17:                                               ; preds = %2
  %18 = load i64, ptr %5, align 8, !tbaa !9
  %19 = icmp eq i64 %18, 0
  br i1 %19, label %20, label %21

20:                                               ; preds = %17
  store i32 1, ptr %3, align 4
  store i32 1, ptr %7, align 4
  br label %47

21:                                               ; preds = %17
  %22 = load i64, ptr %5, align 8, !tbaa !9
  %23 = load ptr, ptr %4, align 8, !tbaa !4
  %24 = getelementptr inbounds nuw %struct.wpacket_st, ptr %23, i32 0, i32 5
  %25 = load ptr, ptr %24, align 8, !tbaa !20
  %26 = getelementptr inbounds nuw %struct.wpacket_sub, ptr %25, i32 0, i32 3
  store i64 %22, ptr %26, align 8, !tbaa !29
  %27 = load i64, ptr %5, align 8, !tbaa !9
  %28 = load ptr, ptr %4, align 8, !tbaa !4
  %29 = getelementptr inbounds nuw %struct.wpacket_st, ptr %28, i32 0, i32 5
  %30 = load ptr, ptr %29, align 8, !tbaa !20
  %31 = getelementptr inbounds nuw %struct.wpacket_sub, ptr %30, i32 0, i32 2
  store i64 %27, ptr %31, align 8, !tbaa !30
  %32 = load ptr, ptr %4, align 8, !tbaa !4
  %33 = load i64, ptr %5, align 8, !tbaa !9
  %34 = call i32 @WPACKET_allocate_bytes(ptr noundef %32, i64 noundef %33, ptr noundef %6)
  %35 = icmp ne i32 %34, 0
  br i1 %35, label %42, label %36

36:                                               ; preds = %21
  %37 = load ptr, ptr %4, align 8, !tbaa !4
  %38 = getelementptr inbounds nuw %struct.wpacket_st, ptr %37, i32 0, i32 5
  %39 = load ptr, ptr %38, align 8, !tbaa !20
  call void @CRYPTO_free(ptr noundef %39, ptr noundef @.str, i32 noundef 120)
  %40 = load ptr, ptr %4, align 8, !tbaa !4
  %41 = getelementptr inbounds nuw %struct.wpacket_st, ptr %40, i32 0, i32 5
  store ptr null, ptr %41, align 8, !tbaa !20
  store i32 0, ptr %3, align 4
  store i32 1, ptr %7, align 4
  br label %47

42:                                               ; preds = %21
  %43 = load ptr, ptr %4, align 8, !tbaa !4
  %44 = getelementptr inbounds nuw %struct.wpacket_st, ptr %43, i32 0, i32 5
  %45 = load ptr, ptr %44, align 8, !tbaa !20
  %46 = getelementptr inbounds nuw %struct.wpacket_sub, ptr %45, i32 0, i32 1
  store i64 0, ptr %46, align 8, !tbaa !31
  store i32 1, ptr %3, align 4
  store i32 1, ptr %7, align 4
  br label %47

47:                                               ; preds = %42, %36, %20, %16
  call void @llvm.lifetime.end.p0(i64 8, ptr %6) #7
  %48 = load i32, ptr %3, align 4
  ret i32 %48
}

; Function Attrs: nounwind uwtable
define internal i64 @maxmaxsize(i64 noundef %0) #0 {
  %2 = alloca i64, align 8
  %3 = alloca i64, align 8
  store i64 %0, ptr %3, align 8, !tbaa !9
  %4 = load i64, ptr %3, align 8, !tbaa !9
  %5 = icmp uge i64 %4, 8
  br i1 %5, label %9, label %6

6:                                                ; preds = %1
  %7 = load i64, ptr %3, align 8, !tbaa !9
  %8 = icmp eq i64 %7, 0
  br i1 %8, label %9, label %10

9:                                                ; preds = %6, %1
  store i64 -1, ptr %2, align 8
  br label %17

10:                                               ; preds = %6
  %11 = load i64, ptr %3, align 8, !tbaa !9
  %12 = mul i64 %11, 8
  %13 = shl i64 1, %12
  %14 = sub i64 %13, 1
  %15 = load i64, ptr %3, align 8, !tbaa !9
  %16 = add i64 %14, %15
  store i64 %16, ptr %2, align 8
  br label %17

17:                                               ; preds = %10, %9
  %18 = load i64, ptr %2, align 8
  ret i64 %18
}

; Function Attrs: nounwind uwtable
define dso_local i32 @WPACKET_init_len(ptr noundef %0, ptr noundef %1, i64 noundef %2) #0 {
  %4 = alloca i32, align 4
  %5 = alloca ptr, align 8
  %6 = alloca ptr, align 8
  %7 = alloca i64, align 8
  store ptr %0, ptr %5, align 8, !tbaa !4
  store ptr %1, ptr %6, align 8, !tbaa !34
  store i64 %2, ptr %7, align 8, !tbaa !9
  %8 = load ptr, ptr %6, align 8, !tbaa !34
  %9 = icmp ne ptr %8, null
  %10 = zext i1 %9 to i32
  %11 = icmp ne i32 %10, 0
  %12 = xor i1 %11, true
  %13 = xor i1 %12, true
  %14 = zext i1 %13 to i32
  %15 = sext i32 %14 to i64
  %16 = call i64 @llvm.expect.i64(i64 %15, i64 1)
  %17 = icmp ne i64 %16, 0
  br i1 %17, label %19, label %18

18:                                               ; preds = %3
  store i32 0, ptr %4, align 4
  br label %37

19:                                               ; preds = %3
  %20 = load ptr, ptr %5, align 8, !tbaa !4
  %21 = getelementptr inbounds nuw %struct.wpacket_st, ptr %20, i32 0, i32 1
  store ptr null, ptr %21, align 8, !tbaa !32
  %22 = load ptr, ptr %6, align 8, !tbaa !34
  %23 = load ptr, ptr %5, align 8, !tbaa !4
  %24 = getelementptr inbounds nuw %struct.wpacket_st, ptr %23, i32 0, i32 0
  store ptr %22, ptr %24, align 8, !tbaa !22
  %25 = load i64, ptr %7, align 8, !tbaa !9
  %26 = call i64 @maxmaxsize(i64 noundef %25)
  %27 = load ptr, ptr %5, align 8, !tbaa !4
  %28 = getelementptr inbounds nuw %struct.wpacket_st, ptr %27, i32 0, i32 4
  store i64 %26, ptr %28, align 8, !tbaa !21
  %29 = load ptr, ptr %5, align 8, !tbaa !4
  %30 = getelementptr inbounds nuw %struct.wpacket_st, ptr %29, i32 0, i32 6
  %31 = load i8, ptr %30, align 8
  %32 = and i8 %31, -2
  %33 = or i8 %32, 0
  store i8 %33, ptr %30, align 8
  %34 = load ptr, ptr %5, align 8, !tbaa !4
  %35 = load i64, ptr %7, align 8, !tbaa !9
  %36 = call i32 @wpacket_intern_init_len(ptr noundef %34, i64 noundef %35)
  store i32 %36, ptr %4, align 4
  br label %37

37:                                               ; preds = %19, %18
  %38 = load i32, ptr %4, align 4
  ret i32 %38
}