; Function Attrs: nounwind uwtable
define dso_local range(i32 0, 2) i32 @WPACKET_init_len(ptr noundef captures(none) %0, ptr noundef %1, i64 noundef %2) local_unnamed_addr #0 {
  %4 = alloca ptr, align 8
  %.not = icmp eq ptr %1, null
  br i1 %.not, label %29, label %5, !prof !24

5:                                                ; preds = %3
  %6 = getelementptr inbounds nuw i8, ptr %0, i64 8
  store ptr null, ptr %6, align 8, !tbaa !20
  store ptr %1, ptr %0, align 8, !tbaa !17
  %7 = add i64 %2, -8
  %or.cond.i = icmp ult i64 %7, -7
  %8 = shl nuw nsw i64 %2, 3
  %notmask.i = shl nsw i64 -1, %8
  %9 = xor i64 %notmask.i, -1
  %10 = add nuw nsw i64 %2, %9
  %.0.i = select i1 %or.cond.i, i64 -1, i64 %10
  %11 = getelementptr inbounds nuw i8, ptr %0, i64 32
  store i64 %.0.i, ptr %11, align 8, !tbaa !15
  %12 = getelementptr inbounds nuw i8, ptr %0, i64 48
  %13 = load i8, ptr %12, align 8
  %14 = and i8 %13, -2
  store i8 %14, ptr %12, align 8
  call void @llvm.lifetime.start.p0(i64 8, ptr nonnull %4) #12
  %15 = getelementptr inbounds nuw i8, ptr %0, i64 16
  tail call void @llvm.memset.p0.i64(ptr noundef nonnull align 8 dereferenceable(16) %15, i8 0, i64 16, i1 false)
  %16 = tail call noalias ptr @CRYPTO_zalloc(i64 noundef 40, ptr noundef nonnull @.str, i32 noundef 110) #12
  %17 = getelementptr inbounds nuw i8, ptr %0, i64 40
  store ptr %16, ptr %17, align 8, !tbaa !4
  %18 = icmp eq ptr %16, null
  br i1 %18, label %wpacket_intern_init_len.exit, label %19

19:                                               ; preds = %5
  %20 = icmp eq i64 %2, 0
  br i1 %20, label %wpacket_intern_init_len.exit, label %21

21:                                               ; preds = %19
  %22 = getelementptr inbounds nuw i8, ptr %16, i64 24
  store i64 %2, ptr %22, align 8, !tbaa !27
  %23 = getelementptr inbounds nuw i8, ptr %16, i64 16
  store i64 %2, ptr %23, align 8, !tbaa !28
  %24 = call i32 @WPACKET_allocate_bytes(ptr noundef nonnull %0, i64 noundef %2, ptr noundef nonnull %4)
  %.not.i = icmp eq i32 %24, 0
  %25 = load ptr, ptr %17, align 8, !tbaa !4
  br i1 %.not.i, label %26, label %27

26:                                               ; preds = %21
  call void @CRYPTO_free(ptr noundef %25, ptr noundef nonnull @.str, i32 noundef 120) #12
  store ptr null, ptr %17, align 8, !tbaa !4
  br label %wpacket_intern_init_len.exit

27:                                               ; preds = %21
  %28 = getelementptr inbounds nuw i8, ptr %25, i64 8
  store i64 0, ptr %28, align 8, !tbaa !29
  br label %wpacket_intern_init_len.exit

wpacket_intern_init_len.exit:                     ; preds = %5, %19, %26, %27
  %.0.i10 = phi i32 [ 1, %27 ], [ 0, %26 ], [ 0, %5 ], [ 1, %19 ]
  call void @llvm.lifetime.end.p0(i64 8, ptr nonnull %4) #12
  br label %29

29:                                               ; preds = %3, %wpacket_intern_init_len.exit
  %.0 = phi i32 [ %.0.i10, %wpacket_intern_init_len.exit ], [ 0, %3 ]
  ret i32 %.0
}